; Function Attrs: mustprogress nofree nounwind willreturn memory(read) uwtable
define hidden noundef zeroext i1 @_ZN5osgeo4proj8internal14ci_starts_withERKNSt7__cxx1112basic_stringIcSt11char_traitsIcESaIcEEES9_(ptr noundef nonnull readonly align 8 captures(none) dereferenceable(32) %0, ptr noundef nonnull readonly align 8 captures(none) dereferenceable(32) %1) local_unnamed_addr #2 personality ptr @__gxx_personality_v0 {
  %3 = getelementptr inbounds nuw i8, ptr %0, i64 8
  %4 = load i64, ptr %3, align 8, !tbaa !12
  %5 = getelementptr inbounds nuw i8, ptr %1, i64 8
  %6 = load i64, ptr %5, align 8, !tbaa !12
  %7 = icmp ult i64 %4, %6
  br i1 %7, label %13, label %8

8:                                                ; preds = %2
  %9 = load ptr, ptr %0, align 8, !tbaa !9
  %10 = load ptr, ptr %1, align 8, !tbaa !9
  %11 = tail call i32 @strncasecmp(ptr noundef readonly %9, ptr noundef readonly %10, i64 noundef %6) #24
  %12 = icmp eq i32 %11, 0
  br label %13

13:                                               ; preds = %2, %8
  %.0 = phi i1 [ %12, %8 ], [ false, %2 ]
  ret i1 %.0
}